target datalayout = "e-m:e-p270:32:32-p271:32:32-p272:64:64-i64:64-i128:128-f80:128-n8:16:32:64-S128"
target triple = "x86_64-pc-linux-gnu"

%"struct.vcpkg::msg::MessageT" = type { i64 }
%"class.std::__cxx11::basic_string" = type { %"struct.std::__cxx11::basic_string<char>::_Alloc_hider", i64, %union.anon }
%"struct.std::__cxx11::basic_string<char>::_Alloc_hider" = type { ptr }
%union.anon = type { i64, [8 x i8] }
%"struct.vcpkg::StringView" = type { ptr, i64 }
%"struct.vcpkg::LocalizedString" = type { %"class.std::__cxx11::basic_string" }

@_ZN5vcpkg30msgInternalErrorMessageContactE = external global %"struct.vcpkg::msg::MessageT", align 8

; Function Attrs: mustprogress uwtable
define linkonce_odr dso_local noundef nonnull align 8 dereferenceable(32) ptr @_ZNR5vcpkg15LocalizedString6appendIJEJEEERS0_NS_3msg8MessageTIJDpT_EEEDpNS3_6TagArgINS_8identityIS5_E4typeET0_EE(ptr noundef nonnull align 8 dereferenceable(32) %0, i64 %1) #0 comdat align 2 {
  %3 = alloca %"struct.vcpkg::msg::MessageT", align 8
  %4 = alloca ptr, align 8
  %5 = alloca %"struct.vcpkg::msg::MessageT", align 8
  %6 = getelementptr inbounds nuw %"struct.vcpkg::msg::MessageT", ptr %3, i32 0, i32 0
  store i64 %1, ptr %6, align 8
  store ptr %0, ptr %4, align 8, !tbaa !31
  %7 = load ptr, ptr %4, align 8
  call void @llvm.memcpy.p0.p0.i64(ptr align 8 %5, ptr align 8 %3, i64 8, i1 false), !tbaa.struct !28
  %8 = getelementptr inbounds nuw %"struct.vcpkg::msg::MessageT", ptr %5, i32 0, i32 0
  %9 = load i64, ptr %8, align 8
  call void @_ZN5vcpkg3msg9format_toIJEJEEEvRNS_15LocalizedStringENS0_8MessageTIJDpT_EEEDpNS0_6TagArgINS_8identityIS5_E4typeET0_EE(ptr noundef nonnull align 8 dereferenceable(32) %7, i64 %9)
  ret ptr %7
}

; Function Attrs: mustprogress uwtable
define linkonce_odr dso_local noundef nonnull align 8 dereferenceable(32) ptr @_ZNO5vcpkg15LocalizedString6appendIJEJEEEOS0_NS_3msg8MessageTIJDpT_EEEDpNS3_6TagArgINS_8identityIS5_E4typeET0_EE(ptr noundef nonnull align 8 dereferenceable(32) %0, i64 %1) #0 comdat align 2 {
  %3 = alloca %"struct.vcpkg::msg::MessageT", align 8
  %4 = alloca ptr, align 8
  %5 = alloca %"struct.vcpkg::msg::MessageT", align 8
  %6 = getelementptr inbounds nuw %"struct.vcpkg::msg::MessageT", ptr %3, i32 0, i32 0
  store i64 %1, ptr %6, align 8
  store ptr %0, ptr %4, align 8, !tbaa !31
  %7 = load ptr, ptr %4, align 8
  call void @llvm.memcpy.p0.p0.i64(ptr align 8 %5, ptr align 8 %3, i64 8, i1 false), !tbaa.struct !28
  %8 = getelementptr inbounds nuw %"struct.vcpkg::msg::MessageT", ptr %5, i32 0, i32 0
  %9 = load i64, ptr %8, align 8
  %10 = call noundef nonnull align 8 dereferenceable(32) ptr @_ZNR5vcpkg15LocalizedString6appendIJEJEEERS0_NS_3msg8MessageTIJDpT_EEEDpNS3_6TagArgINS_8identityIS5_E4typeET0_EE(ptr noundef nonnull align 8 dereferenceable(32) %7, i64 %9)
  ret ptr %10
}

; Function Attrs: mustprogress uwtable
define dso_local void @_ZN5vcpkg6Checks10check_exitERKNS_8LineInfoEbNS_10StringViewE(ptr noundef nonnull align 8 dereferenceable(16) %0, i1 noundef zeroext %1, ptr %2, i64 %3) #0 personality ptr @__gxx_personality_v0 {
  %5 = alloca %"struct.vcpkg::StringView", align 8
  %6 = alloca ptr, align 8
  %7 = alloca i8, align 1
  %8 = alloca %"struct.vcpkg::StringView", align 8
  %9 = alloca %"struct.vcpkg::LocalizedString", align 8
  %10 = alloca %"struct.vcpkg::LocalizedString", align 8
  %11 = alloca ptr, align 8
  %12 = alloca i32, align 4
  %13 = alloca %"struct.vcpkg::StringView", align 8
  %14 = alloca %"struct.vcpkg::msg::MessageT", align 8
  %15 = getelementptr inbounds nuw { ptr, i64 }, ptr %5, i32 0, i32 0
  store ptr %2, ptr %15, align 8
  %16 = getelementptr inbounds nuw { ptr, i64 }, ptr %5, i32 0, i32 1
  store i64 %3, ptr %16, align 8
  store ptr %0, ptr %6, align 8, !tbaa !4
  %17 = zext i1 %1 to i8
  store i8 %17, ptr %7, align 1, !tbaa !22
  %18 = load i8, ptr %7, align 1, !tbaa !22, !range !26, !noundef !27
  %19 = trunc i8 %18 to i1
  br i1 %19, label %59, label %20

20:                                               ; preds = %4
  call void @llvm.lifetime.start.p0(i64 32, ptr %9) #18
  call void @_ZN5vcpkg21internal_error_prefixEv(ptr dead_on_unwind writable sret(%"struct.vcpkg::LocalizedString") align 8 %9)
  call void @llvm.lifetime.start.p0(i64 32, ptr %10) #18
  %21 = load ptr, ptr %6, align 8, !tbaa !4
  invoke void @_ZN12_GLOBAL__N_125locale_invariant_lineinfoERKN5vcpkg8LineInfoE(ptr dead_on_unwind writable sret(%"struct.vcpkg::LocalizedString") align 8 %10, ptr noundef nonnull align 8 dereferenceable(16) %21)
          to label %22 unwind label %50

22:                                               ; preds = %20
  %23 = invoke noundef nonnull align 8 dereferenceable(32) ptr @_ZNO5vcpkg15LocalizedString6appendERKS0_(ptr noundef nonnull align 8 dereferenceable(32) %9, ptr noundef nonnull align 8 dereferenceable(32) %10)
          to label %24 unwind label %54

24:                                               ; preds = %22
  call void @llvm.memcpy.p0.p0.i64(ptr align 8 %13, ptr align 8 %5, i64 16, i1 false), !tbaa.struct !33
  %25 = getelementptr inbounds nuw { ptr, i64 }, ptr %13, i32 0, i32 0
  %26 = load ptr, ptr %25, align 8
  %27 = getelementptr inbounds nuw { ptr, i64 }, ptr %13, i32 0, i32 1
  %28 = load i64, ptr %27, align 8
  %29 = invoke noundef nonnull align 8 dereferenceable(32) ptr @_ZNO5vcpkg15LocalizedString10append_rawENS_10StringViewE(ptr noundef nonnull align 8 dereferenceable(32) %23, ptr %26, i64 %28)
          to label %30 unwind label %54

30:                                               ; preds = %24
  %31 = invoke noundef nonnull align 8 dereferenceable(32) ptr @_ZNO5vcpkg15LocalizedString10append_rawEc(ptr noundef nonnull align 8 dereferenceable(32) %29, i8 noundef signext 10)
          to label %32 unwind label %54

32:                                               ; preds = %30
  call void @llvm.memcpy.p0.p0.i64(ptr align 8 %14, ptr align 8 @_ZN5vcpkg30msgInternalErrorMessageContactE, i64 8, i1 false), !tbaa.struct !28
  %33 = getelementptr inbounds nuw %"struct.vcpkg::msg::MessageT", ptr %14, i32 0, i32 0
  %34 = load i64, ptr %33, align 8
  %35 = invoke noundef nonnull align 8 dereferenceable(32) ptr @_ZNO5vcpkg15LocalizedString6appendIJEJEEEOS0_NS_3msg8MessageTIJDpT_EEEDpNS3_6TagArgINS_8identityIS5_E4typeET0_EE(ptr noundef nonnull align 8 dereferenceable(32) %31, i64 %34)
          to label %36 unwind label %54

36:                                               ; preds = %32
  %37 = invoke noundef nonnull align 8 dereferenceable(32) ptr @_ZNO5vcpkg15LocalizedString10append_rawEc(ptr noundef nonnull align 8 dereferenceable(32) %35, i8 noundef signext 10)
          to label %38 unwind label %54

38:                                               ; preds = %36
  %39 = call { ptr, i64 } @_ZNK5vcpkg15LocalizedStringcvNS_10StringViewEEv(ptr noundef nonnull align 8 dereferenceable(32) %37) #18
  %40 = getelementptr inbounds nuw { ptr, i64 }, ptr %8, i32 0, i32 0
  %41 = extractvalue { ptr, i64 } %39, 0
  store ptr %41, ptr %40, align 8
  %42 = getelementptr inbounds nuw { ptr, i64 }, ptr %8, i32 0, i32 1
  %43 = extractvalue { ptr, i64 } %39, 1
  store i64 %43, ptr %42, align 8
  %44 = getelementptr inbounds nuw { ptr, i64 }, ptr %8, i32 0, i32 0
  %45 = load ptr, ptr %44, align 8
  %46 = getelementptr inbounds nuw { ptr, i64 }, ptr %8, i32 0, i32 1
  %47 = load i64, ptr %46, align 8
  invoke void @_ZN5vcpkg3msg32write_unlocalized_text_to_stderrENS_5ColorENS_10StringViewE(i8 noundef signext 49, ptr %45, i64 %47)
          to label %48 unwind label %54

48:                                               ; preds = %38
  call void @_ZN5vcpkg15LocalizedStringD2Ev(ptr noundef nonnull align 8 dereferenceable(32) %10) #18
  call void @llvm.lifetime.end.p0(i64 32, ptr %10) #18
  call void @_ZN5vcpkg15LocalizedStringD2Ev(ptr noundef nonnull align 8 dereferenceable(32) %9) #18
  call void @llvm.lifetime.end.p0(i64 32, ptr %9) #18
  %49 = load ptr, ptr %6, align 8, !tbaa !4
  call void @_ZN5vcpkg6Checks9exit_failERKNS_8LineInfoE(ptr noundef nonnull align 8 dereferenceable(16) %49) #20
  unreachable

50:                                               ; preds = %20
  %51 = landingpad { ptr, i32 }
          cleanup
  %52 = extractvalue { ptr, i32 } %51, 0
  store ptr %52, ptr %11, align 8
  %53 = extractvalue { ptr, i32 } %51, 1
  store i32 %53, ptr %12, align 4
  br label %58

54:                                               ; preds = %38, %36, %32, %30, %24, %22
  %55 = landingpad { ptr, i32 }
          cleanup
  %56 = extractvalue { ptr, i32 } %55, 0
  store ptr %56, ptr %11, align 8
  %57 = extractvalue { ptr, i32 } %55, 1
  store i32 %57, ptr %12, align 4
  call void @_ZN5vcpkg15LocalizedStringD2Ev(ptr noundef nonnull align 8 dereferenceable(32) %10) #18
  br label %58

58:                                               ; preds = %54, %50
  call void @llvm.lifetime.end.p0(i64 32, ptr %10) #18
  call void @_ZN5vcpkg15LocalizedStringD2Ev(ptr noundef nonnull align 8 dereferenceable(32) %9) #18
  call void @llvm.lifetime.end.p0(i64 32, ptr %9) #18
  br label %60

59:                                               ; preds = %4
  ret void

60:                                               ; preds = %58
  %61 = load ptr, ptr %11, align 8
  %62 = load i32, ptr %12, align 4
  %63 = insertvalue { ptr, i32 } poison, ptr %61, 0
  %64 = insertvalue { ptr, i32 } %63, i32 %62, 1
  resume { ptr, i32 } %64
}