; Function Attrs: mustprogress uwtable
define dso_local void @_ZN5vcpkg6Checks10check_exitERKNS_8LineInfoEbNS_10StringViewE(ptr noundef nonnull align 8 dereferenceable(16) %0, i1 noundef zeroext %1, ptr %2, i64 %3) local_unnamed_addr #0 personality ptr @__gxx_personality_v0 {
  %5 = alloca %"struct.vcpkg::LocalizedString", align 8
  %6 = alloca %"struct.vcpkg::LocalizedString", align 8
  br i1 %1, label %41, label %7

7:                                                ; preds = %4
  call void @llvm.lifetime.start.p0(i64 32, ptr nonnull %5) #20
  call void @_ZN5vcpkg21internal_error_prefixEv(ptr dead_on_unwind nonnull writable sret(%"struct.vcpkg::LocalizedString") align 8 %5)
  call void @llvm.lifetime.start.p0(i64 32, ptr nonnull %6) #20
  invoke fastcc void @_ZN12_GLOBAL__N_125locale_invariant_lineinfoERKN5vcpkg8LineInfoE(ptr dead_on_unwind noalias writable align 8 %6, ptr noundef nonnull align 8 dereferenceable(16) %0)
          to label %8 unwind label %21

8:                                                ; preds = %7
  %9 = invoke noundef nonnull align 8 dereferenceable(32) ptr @_ZNO5vcpkg15LocalizedString6appendERKS0_(ptr noundef nonnull align 8 dereferenceable(32) %5, ptr noundef nonnull align 8 dereferenceable(32) %6)
          to label %10 unwind label %23

10:                                               ; preds = %8
  %11 = invoke noundef nonnull align 8 dereferenceable(32) ptr @_ZNO5vcpkg15LocalizedString10append_rawENS_10StringViewE(ptr noundef nonnull align 8 dereferenceable(32) %9, ptr %2, i64 %3)
          to label %12 unwind label %23

12:                                               ; preds = %10
  %13 = invoke noundef nonnull align 8 dereferenceable(32) ptr @_ZNO5vcpkg15LocalizedString10append_rawEc(ptr noundef nonnull align 8 dereferenceable(32) %11, i8 noundef signext 10)
          to label %14 unwind label %23

14:                                               ; preds = %12
  %.sroa.0.0.copyload = load i64, ptr @_ZN5vcpkg30msgInternalErrorMessageContactE, align 8, !tbaa !30
  invoke void @_ZN5vcpkg3msg9format_toIJEJEEEvRNS_15LocalizedStringENS0_8MessageTIJDpT_EEEDpNS0_6TagArgINS_8identityIS5_E4typeET0_EE(ptr noundef nonnull align 8 dereferenceable(32) %13, i64 %.sroa.0.0.copyload)
          to label %_ZNO5vcpkg15LocalizedString6appendIJEJEEEOS0_NS_3msg8MessageTIJDpT_EEEDpNS3_6TagArgINS_8identityIS5_E4typeET0_EE.exit unwind label %23

_ZNO5vcpkg15LocalizedString6appendIJEJEEEOS0_NS_3msg8MessageTIJDpT_EEEDpNS3_6TagArgINS_8identityIS5_E4typeET0_EE.exit: ; preds = %14
  %15 = invoke noundef nonnull align 8 dereferenceable(32) ptr @_ZNO5vcpkg15LocalizedString10append_rawEc(ptr noundef nonnull align 8 dereferenceable(32) %13, i8 noundef signext 10)
          to label %16 unwind label %23

16:                                               ; preds = %_ZNO5vcpkg15LocalizedString6appendIJEJEEEOS0_NS_3msg8MessageTIJDpT_EEEDpNS3_6TagArgINS_8identityIS5_E4typeET0_EE.exit
  %17 = call { ptr, i64 } @_ZNK5vcpkg15LocalizedStringcvNS_10StringViewEEv(ptr noundef nonnull align 8 dereferenceable(32) %15) #20
  %18 = extractvalue { ptr, i64 } %17, 0
  %19 = extractvalue { ptr, i64 } %17, 1
  invoke void @_ZN5vcpkg3msg32write_unlocalized_text_to_stderrENS_5ColorENS_10StringViewE(i8 noundef signext 49, ptr %18, i64 %19)
          to label %20 unwind label %23

20:                                               ; preds = %16
  call void @_ZN5vcpkg15LocalizedStringD2Ev(ptr noundef nonnull align 8 dereferenceable(32) %6) #20
  call void @llvm.lifetime.end.p0(i64 32, ptr nonnull %6) #20
  call void @_ZN5vcpkg15LocalizedStringD2Ev(ptr noundef nonnull align 8 dereferenceable(32) %5) #20
  call void @llvm.lifetime.end.p0(i64 32, ptr nonnull %5) #20
  call void @_ZN5vcpkg6Checks9exit_failERKNS_8LineInfoE(ptr noundef nonnull align 8 dereferenceable(16) %0) #23
  unreachable

21:                                               ; preds = %7
  %22 = landingpad { ptr, i32 }
          cleanup
  br label %_ZN5vcpkg15LocalizedStringD2Ev.exit

23:                                               ; preds = %14, %16, %_ZNO5vcpkg15LocalizedString6appendIJEJEEEOS0_NS_3msg8MessageTIJDpT_EEEDpNS3_6TagArgINS_8identityIS5_E4typeET0_EE.exit, %12, %10, %8
  %24 = landingpad { ptr, i32 }
          cleanup
  %25 = load ptr, ptr %6, align 8, !tbaa !24
  %26 = getelementptr inbounds nuw i8, ptr %6, i64 16
  %27 = icmp eq ptr %25, %26
  br i1 %27, label %_ZNKSt7__cxx1112basic_stringIcSt11char_traitsIcESaIcEE11_M_is_localEv.exit.thread.i.i.i, label %_ZNKSt7__cxx1112basic_stringIcSt11char_traitsIcESaIcEE11_M_is_localEv.exit.i.i.i

_ZNKSt7__cxx1112basic_stringIcSt11char_traitsIcESaIcEE11_M_is_localEv.exit.thread.i.i.i: ; preds = %23
  %28 = getelementptr inbounds nuw i8, ptr %6, i64 8
  %29 = load i64, ptr %28, align 8, !tbaa !28
  %30 = icmp ult i64 %29, 16
  call void @llvm.assume(i1 %30)
  br label %_ZN5vcpkg15LocalizedStringD2Ev.exit

_ZNKSt7__cxx1112basic_stringIcSt11char_traitsIcESaIcEE11_M_is_localEv.exit.i.i.i: ; preds = %23
  %31 = load i64, ptr %26, align 8, !tbaa !29
  %32 = add i64 %31, 1
  call void @_ZdlPvm(ptr noundef %25, i64 noundef %32) #22
  br label %_ZN5vcpkg15LocalizedStringD2Ev.exit

_ZN5vcpkg15LocalizedStringD2Ev.exit:              ; preds = %_ZNKSt7__cxx1112basic_stringIcSt11char_traitsIcESaIcEE11_M_is_localEv.exit.i.i.i, %_ZNKSt7__cxx1112basic_stringIcSt11char_traitsIcESaIcEE11_M_is_localEv.exit.thread.i.i.i, %21
  %.pn = phi { ptr, i32 } [ %22, %21 ], [ %24, %_ZNKSt7__cxx1112basic_stringIcSt11char_traitsIcESaIcEE11_M_is_localEv.exit.thread.i.i.i ], [ %24, %_ZNKSt7__cxx1112basic_stringIcSt11char_traitsIcESaIcEE11_M_is_localEv.exit.i.i.i ]
  call void @llvm.lifetime.end.p0(i64 32, ptr nonnull %6) #20
  %33 = load ptr, ptr %5, align 8, !tbaa !24
  %34 = getelementptr inbounds nuw i8, ptr %5, i64 16
  %35 = icmp eq ptr %33, %34
  br i1 %35, label %_ZNKSt7__cxx1112basic_stringIcSt11char_traitsIcESaIcEE11_M_is_localEv.exit.thread.i.i.i12, label %_ZNKSt7__cxx1112basic_stringIcSt11char_traitsIcESaIcEE11_M_is_localEv.exit.i.i.i11

_ZNKSt7__cxx1112basic_stringIcSt11char_traitsIcESaIcEE11_M_is_localEv.exit.thread.i.i.i12: ; preds = %_ZN5vcpkg15LocalizedStringD2Ev.exit
  %36 = getelementptr inbounds nuw i8, ptr %5, i64 8
  %37 = load i64, ptr %36, align 8, !tbaa !28
  %38 = icmp ult i64 %37, 16
  call void @llvm.assume(i1 %38)
  br label %_ZN5vcpkg15LocalizedStringD2Ev.exit13

_ZNKSt7__cxx1112basic_stringIcSt11char_traitsIcESaIcEE11_M_is_localEv.exit.i.i.i11: ; preds = %_ZN5vcpkg15LocalizedStringD2Ev.exit
  %39 = load i64, ptr %34, align 8, !tbaa !29
  %40 = add i64 %39, 1
  call void @_ZdlPvm(ptr noundef %33, i64 noundef %40) #22
  br label %_ZN5vcpkg15LocalizedStringD2Ev.exit13

_ZN5vcpkg15LocalizedStringD2Ev.exit13:            ; preds = %_ZNKSt7__cxx1112basic_stringIcSt11char_traitsIcESaIcEE11_M_is_localEv.exit.thread.i.i.i12, %_ZNKSt7__cxx1112basic_stringIcSt11char_traitsIcESaIcEE11_M_is_localEv.exit.i.i.i11
  call void @llvm.lifetime.end.p0(i64 32, ptr nonnull %5) #20
  resume { ptr, i32 } %.pn

41:                                               ; preds = %4
  ret void
}